
beep.elf:     file format elf32-littlearm


Disassembly of section .text:

00000000 <_start>:
   0:	e59f001c 	ldr	r0, [pc, #28]	; 24 <halt+0x4>
   4:	e3a01000 	mov	r1, #0
   8:	e5801000 	str	r1, [r0]
   c:	ee110f10 	mrc	15, 0, r0, cr1, cr0, {0}
  10:	e3800a01 	orr	r0, r0, #4096	; 0x1000
  14:	ee010f10 	mcr	15, 0, r0, cr1, cr0, {0}
  18:	e59fd008 	ldr	sp, [pc, #8]	; 28 <halt+0x8>
  1c:	eb000014 	bl	74 <main>

00000020 <halt>:
  20:	eafffffe 	b	20 <halt>
  24:	10060000 	andne	r0, r6, r0
  28:	02050000 	andeq	r0, r5, #0

0000002c <delay>:
  2c:	e52db004 	push	{fp}		; (str fp, [sp, #-4]!)
  30:	e28db000 	add	fp, sp, #0
  34:	e24dd014 	sub	sp, sp, #20
  38:	e50b0010 	str	r0, [fp, #-16]
  3c:	e51b3010 	ldr	r3, [fp, #-16]
  40:	e50b3008 	str	r3, [fp, #-8]
  44:	e51b3008 	ldr	r3, [fp, #-8]
  48:	e3530000 	cmp	r3, #0
  4c:	03a02000 	moveq	r2, #0
  50:	13a02001 	movne	r2, #1
  54:	e20220ff 	and	r2, r2, #255	; 0xff
  58:	e2433001 	sub	r3, r3, #1
  5c:	e50b3008 	str	r3, [fp, #-8]
  60:	e3520000 	cmp	r2, #0
  64:	1afffff6 	bne	44 <delay+0x18>
  68:	e28bd000 	add	sp, fp, #0
  6c:	e8bd0800 	pop	{fp}
  70:	e12fff1e 	bx	lr

00000074 <main>:
  74:	e92d4800 	push	{fp, lr}
  78:	e28db004 	add	fp, sp, #4
  7c:	e59f3030 	ldr	r3, [pc, #48]	; b4 <main+0x40>
  80:	e3a02001 	mov	r2, #1
  84:	e5832000 	str	r2, [r3]
  88:	e59f3028 	ldr	r3, [pc, #40]	; b8 <main+0x44>
  8c:	e3a02001 	mov	r2, #1
  90:	e5832000 	str	r2, [r3]
  94:	e3a00702 	mov	r0, #524288	; 0x80000
  98:	ebffffe3 	bl	2c <delay>
  9c:	e59f3014 	ldr	r3, [pc, #20]	; b8 <main+0x44>
  a0:	e3a02000 	mov	r2, #0
  a4:	e5832000 	str	r2, [r3]
  a8:	e3a00702 	mov	r0, #524288	; 0x80000
  ac:	ebffffde 	bl	2c <delay>
  b0:	eafffff4 	b	88 <main+0x14>
  b4:	114000a0 	smlaltbne	r0, r0, r0, r0
  b8:	114000a4 	smlaltbne	r0, r0, r4, r0
